(lp0
S"Three King's Day Party"
p1
aS'Blackout Fridays! Demetre Souliotes Teaching! DJ Tocco! BYOB!'
p2
aS'Caltech Carpool to Blackout Friday! (01/05)'
p3
aS'2018 Resolution: I EMMA forEVA down to party'
p4
aS'Swingin the Blues w/ Tara, Ryan & Demetre'
p5
aS'West Coast Wednesday at Caltech! (South Cat) (01/03)'
p6
aS'Soul City Swing: New Years *Guest DJ Adventure Time *'
p7
aS'Events from 2017'
p8
aS"Last Minute New Year's Fusion Party 3: Make It Shiny!"
p9
aS'The End of the Line WCS Dance: Best of 2017!'
p10
aS'JT Swing Teams @ Palm Springs NewYears! JV & Varsity'
p11
aS"JT Swing Teams Perform at New Year's Dance Extravaganza 2017-201"
p12
aS'Swingin the Blues w/ Ryan, Samantha, Malia, DJ Larisa'
p13
aS"Palm Springs New Year's Swing & Hustle Dance Classic 2017"
p14
aS"JT Swing Teams Perform at Spotlight New Year's Celebration"
p15
aS'Christmas Night Swing Dance at Atomic Ballroom'
p16
aS'Swingin the Blues w/ Ben, Malia, Ryan, DJ Aidan'
p17
aS'Soul City Swing: *Guest DJ Aidan* Holiday Party'
p18
aS'Tear Up the Holidays w/ Victoria Henk'
p19
aS'#Swungover Monday\xe2\x80\x99s! DJ Aidan\xe2\x80\x99s Going Away Party! Alicia\xe2\x80\x99s Birthday Jam'
p20
aS'WESTY BOMB! @ Angel City Fusion'
p21
aS"Sam's dirty 30's SUPRISE PARTY!!!... I repeat, SURPRISE PARTY!"
p22
aS'Int/Adv West Coast Swing Partnering Workshop w/ Ben Morris'
p23
aS'Caltech Christmas Salsa Party'
p24
aS'StB Holiday Party w/ Maxime & Torri, Dennis Jones Band LIVE!'
p25
aS'Westy Focus #8'
p26
aS'West Coast Wednesday at Caltech! (South Cat) (12/13)'
p27
aS'Soul City Swing'
p28
aS'Tear It Up Tuesday - Solo Track Week'
p29
aS'Sunday Funday! West Coast Swing Party White Elephant JNJ'
p30
aS'Christmas housewarming open house'
p31
aS'Caltech Carpool to 5050 Swing! (12/09)'
p32
aS'5050 Swing Holiday Toy Drive!'
p33
aS"Zofii's Birthday"
p34
aS'Blackout Christmas! 3rd Annual White Elephant Jack & Jill!'
p35
aS'Swing Club Christmas Party'
p36
aS'Caltech Carpool to Blackout Friday! (12/08)'
p37
aS'HOLIDAY TASTING PARTY!'
p38
aS'Swingin the Blues w/ Ryan, Malia, & Demetre!'
p39
aS'West Coast Wednesday at Caltech! (South Cat) (12/06)'
p40
aS'Alley Cat Date Night'
p41
aS'Instructor Change: Int/Adv West Coast Swing w/ Joel Torgeson!'
p42
aS"Soul City Swing: Graham's Going Away Party!"
p43
aS'#Swungover Monday\xe2\x80\x99s! DJ Nae Nae!! Dexter & Lani\xe2\x80\x99s BDay & Graham\xe2\x80\x99s Farwell'
p44
aS"Neil & Steph's Wedding (Los Angeles)"
p45
aS'Storytelling for Scientists'
p46
aS'Casino Night Fundraiser for Dance Force!'
p47
aS'Swingin the Blues The After Party Earlybird Party'
p48
aS'The After Party 2017! A West Coast Swing Experience'
p49
aS'West Coast Wednesday at Caltech! (South Cat) (11/29)'
p50
aS'Int/Adv West Coast Swing w/ Malia San Nicholas! (Week 2!) (11/29'
p51
aS'"In the Red" Art Show Opening Night'
p52
aS'Soul City Swing: Free Congratulatory Dance!'
p53
aS'TAP It Up Tuesday w/ Tessa Cunningham Munroe'
p54
aS'Swungover Monday\xe2\x80\x99s TAP\xe2\x80\x99d Out!!!'
p55
aS'Echo Mountain Hike via Sam Merrill Trai'
p56
aS'Friday Night Varsity Practice@ The Open'
p57
aS'Sum Dim Sum Fun'
p58
aS'JT Swing Teams Perform at CASH Bash 2017'
p59
aS'Official Event ~ The US Open Swing Dance Championships 2017'
p60
aS'Varsity Practice: Pre-Party Edition'
p61
aS'Caltech Carpool to US Open Pre-Party! (11/22)'
p62
aS'Nov 22: US Open Wed. Pre-Party w/ Sonny, Ben & DJ Jumpin Jack'
p63
aS'Varsity Practice'
p64
aS'Soul City Swing 11/21'
p65
aS'Tear It Up Tuesday'
p66
aS'Monday Night Practice'
p67
aS'Friendsgiving potluck!'
p68
aS'JT Swing Teams Meet and Greet Party at DCSX'
p69
aS'29 Year Anniversary Party Celebration'
p70
aS'People and Postcards: Climate Solutions Advocacy'
p71
aS"Jozi's Housewarming Party"
p72
aS'Varsity Practice'
p73
aS'Blackout Fridays! The Amazing Martin Parker! And DJ Nae Nae'
p74
aS'Caltech Carpool to Blackout Friday! (11/17)'
p75
aS'Odyssey Fest by TIMEWHEEL'
p76
aS'Caltech Carpool to Atomic! (11/16)'
p77
aS'Stb College Night w/Benji Schwimmer, Ben, Sam, DJ Larisa & Chris'
p78
aS'JT Swing Teams Perform at DCSX'
p79
aS'DCSX 2017'
p80
aS'West Coast Wednesday at Caltech! (South Cat) (11/15)'
p81
aS'Int/Adv West Coast Swing w/ Malia San Nicholas!'
p82
aS'Beginner/Intermediate West Coast Swing Workshop! (11/15)'
p83
aS'Soul City Swing 11/14'
p84
aS'#Swungover Monday\xe2\x80\x99s DJ Adventure Time ( Stacia Wilson)'
p85
aS'Funday Sunday 2 Jack & Jill contest. DJ Brian Sforzo'
p86
aS'Caltech Carpool to 5050 Swing! (11/11)'
p87
aS'5050 Swing ONE YEAR Anniversary at The Press Box!'
p88
aS'Varsity Practice in Simi'
p89
aS'Paint a Pot! Plant a Seed!'
p90
aS'Art on Palm at Arlington Garden'
p91
aS'Steuben House Re-Re-Re-Warming Party'
p92
aS'Swingin the Blues w/ Carlus & Josie, Sam, Ben, DJ Chris Chung'
p93
aS"Swingin' New England"
p94
aS'Westy Focus #7'
p95
aS'West Coast Wednesday at Caltech! (South Cat) (11/08)'
p96
aS'Beginner/Intermediate West Coast Swing Workshop! (South Cat)'
p97
aS'Call Congress to Act on Climate'
p98
aS'Soul City Swing 11/7'
p99
aS'Westie Sunset Dancing LA!'
p100
aS'Caltech Rosebud Ball'
p101
aS'California Swing Dance Hall Of Fame Annual Fundraiser'
p102
aS'Blackout Fridays Special Edition at Pitfire Pizza!'
p103
aS'Swingin the Blues the Return of the Meech w/Demetre, Kara, & Sam'
p104
aS'Aspiration Meet and Greet (with Free Food and iPad Raffle!)'
p105
aS'West Coast Wednesday at Caltech! (South Cat) (11/01)'
p106
aS'Beginner/Intermediate West Coast Swing Workshop! (11/01)'
p107
aS'Soul City Swing: Halloween Edition'
p108
aS'Swungover Monday\xe2\x80\x99s!!! DJ Bellz'
p109
aS'Fall 2017 So Cal Corgi Beach Day'
p110
aS'Swingin the Blues HST Earlybird Party w/Ben & Victoria, DJ Louis'
p111
aS"Halloween BeachThing '17"
p112
aS'Halloween Swingthing 2017'
p113
aS'West Coast Wednesday at Caltech! (South Cat) (10/25)'
p114
aS'Westy Focus #6 w/ BAMEO!'
p115
aS'Beginner West Coast Swing Week 4! (10/25)'
p116
aS'Soul City Swing 10/24'
p117
aS'Tear It Up Tuesday w/ Samantha Buckwalter'
p118
aS'#Swungover Monday\xe2\x80\x99s! DJ Aidan/ Late Night Critique'
p119
aS'Fundraiser dance & online raffle benefiting Cali fire victims'
p120
aS'#HotMessHostel Hosts: #KappaMuRho College Rush Night'
p121
aS'WestieJam w/ Nicole, Cameron, Chris Chung, and DJ Panda!'
p122
aS'StB Paradise Earlybird Party w/Arjay, Malia, Sam, Daniel & Jack!'
p123
aS'Paradise Country and Swing Dance Festival'
p124
aS'West Coast Wednesday at Caltech! (South Cat) (10/18)'
p125
aS'Beginner West Coast Swing Week 3! (10/18)'
p126
aS'Street SWING - Sonny Watson!'
p127
aS'Soul City Swing 10/17'
p128
aS"#Swungover Monday's!!! Pre-Paradise Party!"
p129
aS'Open WCS J&J Contest $100 Jackpot 10/15/17 DJ Helen Tocco'
p130
aS'Westie Sunset Dancing Vol.4'
p131
aS'Caltech Carpool to 5050 Swing! (10/14)'
p132
aS'5050 Hallowswing at The Press Box!'
p133
aS'Swing into Fall! 2nd Saturday October Dance'
p134
aS'Westy Focus #5'
p135
aS'Blackout Fridays! Champion Doug Silton! DJs Aidan and Brian!'
p136
aS'Caltech Carpool to Blackout Friday! (10/13)'
p137
aS'Swingin the Blues w/ Malia, Ben, DJ BroMance'
p138
aS'West Coast Wednesday at Caltech! (South Cat) (10/11)'
p139
aS'Street SWING - Sonny Watson!'
p140
aS'Beginner West Coast Swing Week 2! (10/11)'
p141
aS'Soul City Swing 10/10'
p142
aS'Tear It Up Tuesday - Solo Track Week'
p143
aS"#Swungover Monday's!!!"
p144
aS"Jay's Birthday 2017"
p145
aS'SECURITY CAME - meet us in ballroom Boogie Prefunk!'
p146
aS'Film Screening: Chasing Coral'
p147
aS'Saturday Lesson and Social Dance: West Coast Swing'
p148
aS'Yosemite in Oct'
p149
aS'Swingin the Blues w/ Ben, Malia, DJ Lance'
p150
aS'Boogie by the Bay 2017'
p151
aS'Intermediate/Advanced West Coast Swing Classes!'
p152
aS'West Coast Wednesday at Caltech! (South Cat) (10/04)'
p153
aS'Beginner West Coast Swing Week 1! (10/04)'
p154
aS'Street SWING - Sonny Watson!'
p155
aS'Tear It Up Tuesday'
p156
aS'Tuesday Kizomba In the Valley'
p157
aS"#Swungover Monday's!! late night /Spotlight Night!!"
p158
aS'The End of the Line WCS Dance'
p159
aS'5th Saturday WCS with Carlus & Josie'
p160
aS"Thank Goodness it's Swinging Saturday!"
p161
aS'Blackout Fridays! Teacher and DJ Abigail Vogels and DJ Nae Nae'
p162
aS'Caltech Carpool to Blackout Friday! (09/29)'
p163
aS"WestieJam w/ Demetre, Kara, Kristine & DJ's Meech and Manderson"
p164
aS'Swingin the Blues w/ Tony & Larisa, Ryan, Ben Mo, DJ Larisa'
p165
aS'Westy Focus #4'
p166
aS'West Coast Wednesday at Caltech! (South Cat) (09/27)'
p167
aS'Tuesday Kizomba In the Valley'
p168
aS'#Swungover Monday\'s! Sherman Oaks/ Late Night Critique "Jam Style"'
p169
aS'3rd Floor Patio! ES PROMO PARTY Bridgetown Edition'
p170
aS'Apartment Warming Party! (also flip cup practice)'
p171
aS'Westie Sunset Dancing HB Vol.3'
p172
aS'Swingin the Blues w/ Tony & Larisa, Malia, Ryan, DJ Helen'
p173
aS'BridgeTown Swing 2017'
p174
aS"Sway'd at Bridgetown Swing"
p175
aS'West Coast Wednesday at Caltech! (South Cat) (09/20)'
p176
aS"Swingin' the Club 9/19"
p177
aS'Tuesday Kizomba In the Valley'
p178
aS'Lounge Night at Tear It Up Tuesday'
p179
aS"#Swungover Monday's Sherman Oaks"
p180
aS"Jack and Rachele's going away party!"
p181
aS"WC Swing Party w/ DJ's Helen Tocco & Bromance"
p182
aS'Westy Focus #3'
p183
aS'Official University of Texas Tailgate'
p184
aS'OC CARPOOL \xf0\x9f\x9a\x97\xf0\x9f\x92\xa8 to BLACK OUT FRIDAYS'
p185
aS'Blackout Fridays! Demetre Souliotes Teaching! DJs Aidan/Brian'
p186
aS'Caltech Carpool to Blackout Friday! (09/15)'
p187
aS'Swingin the Blues w/ Tony & Larisa, Ben, Ryan, DJ Jumpin Jack'
p188
aS'West Coast Wednesday at Caltech! (South Cat) (09/13)'
p189
aS"Swingin' the Club 9/12"
p190
aS'Tear It Up Tuesday - Solo Track Week'
p191
aS"#Swungover Monday's!! DJ Aidan / Late Night Critique!!"
p192
aS'Caltech Carpool to 5050 Swing! (09/09)'
p193
aS'5050 Swing at The Press Box!'
p194
aS'Austin Rocks Pool Party: Wild Wild West Toast Swing Edition'
p195
aS'Swingin the Blues w/ Tony & Larisa, Ryan, Malia, DJ Aidan'
p196
aS'ESS Phoenix Camp'
p197
aS'West Coast Wednesday at Caltech! (South Cat) (09/06)'
p198
aS'Beginner/Intermediate West Coast Swing! (09/06)'
p199
aS'Lounge Night at Tear It Up Tuesday'
p200
aS'Orange County International Flashmob West Coast Swing 2017'
p201
aS"Stephanie Threatt's Birthday Bash"
p202
aS'Swingin the Blues w/ Mary Ann Nunez, Ben, Malia, DJ BroMance'
p203
aS'West Coast Wednesday at Caltech! (South Cat) (08/30)'
p204
aS'Street Swing! Blues Night with Legend, Mary Ann Nunez!'
p205
aS'Beginner/Intermediate West Coast Swing Week 1! (08/30)'
p206
aS'LAWAC Young Professionals August Mixer'
p207
aS"Chris' B-day Bash at Tear It Up Tuesday"
p208
aS"#Swungover Monday's!! Sherman Oaks!"
p209
aS'South Bay Swing 8/26'
p210
aS'Westy Focus #2'
p211
aS'Blackout Fridays! With Legend Sonny Watson! DJs Tip and Katie!'
p212
aS'Caltech Carpool to Blackout Friday! (08/25)'
p213
aS'Summer Hummer 2017!'
p214
aS'West Coast Wednesday at Caltech! (South Cat) (08/23)'
p215
aS'Street SWING - Sonny Watson!'
p216
aS'Int/Adv West Coast Swing w/ Samantha Buckwalter! (last class!) ('
p217
aS'ZOUK in the Valley - now on Tuesdays - with Bruno and Olga'
p218
aS'Tear It Up Tuesday'
p219
aS"Swingin' the Club"
p220
aS"#Swungover Monday's !! Swouk Night w/ Bruno & Olga!!"
p221
aS"Swungover Monday's Swouk Night!! - With Bruno & Olga"
p222
aS"WC Swing Party w/ Ryan & Samantha - DJ's Karl, Ryan & Samantha"
p223
aS'West Coast Swing Workshop w/ Isaiah Meders 8/19'
p224
aS'WestieJam Social Night w/ Brandon Kristine DJ Brandon & Annette'
p225
aS'Westie Sunset Dancing HB'
p226
aS'StB 9 Yr Dance w/Brandi, Dennis Jones Band, John Peters,DJ Helen'
p227
aS'West Coast Wednesday at Caltech! (South Cat) (08/16)'
p228
aS'WCS/Country 2 Step Dance at Calico'
p229
aS'Int/Adv West Coast Swing w/ Samantha Buckwalter! (08/16)'
p230
aS"Swingin' the Club"
p231
aS"#Swungover Monday's Sherman Oaks!! Glow Party/Late Night Critique!!"
p232
aS'Caltech Carpool to 5050 Swing! (08/12)'
p233
aS'LIVE BLUES Band!! 5050 Swing at The Press Box!'
p234
aS'Going Away Partay'
p235
aS'Caltech Carpool to Blackout Friday! (08/11)'
p236
aS'Birthday Shakespeare in the Park'
p237
aS'Caltech Salsa Classes'
p238
aS'Swingin the Blues w/ Mary Ann Nunez, Kris & Toro, DJ Jumpin Jack'
p239
aS'Help Wendy Go Pro with a GoPro!'
p240
aS'First Meeting'
p241
aS'West Coast Wednesday at Caltech! (South Cat) (08/09)'
p242
aS'Int/Adv West Coast Swing w/ Samantha Buckwalter! (08/09)'
p243
aS"Swingin' the Club"
p244
aS'Tear It Up Tuesday - Solo Track Week'
p245
aS'#SwungoverMondays!! Grand ReOpening Sherman Oaks'
p246
aS'First Sherman Oaks rehearsal'
p247
aS'Got Kicked Out IN LOBBY Swingtacular Prefunk w/ Alien Urine Samples'
p248
aS'Escape Room at Swingtacular'
p249
aS'Kizomba on Friday House Party'
p250
aS'2017 Routinesive at Swingtacular: Ben & Jentensive'
p251
aS'Swingin the Blues w/ Mary Ann Nunez, Malia, Ryan, DJ Aidan!'
p252
aS'Swingtacular: The Galactic Open 2017'
p253
aS'Swayd at Swingtacular'
p254
aS'West Coast Wednesday at Caltech! (South Cat) (08/02)'
p255
aS'Int/Adv West Coast Swing w/ Samantha Buckwalter! (08/02)'
p256
aS"Swingin' the Club"
p257
aS'Lounge Night at Tear It Up Tuesday'
p258
aS'ZoukMX 2017 - Official Event Info'
p259
aS"#Swungover Monday's! Last Night in Burbank"
p260
aS'JT Swing Season1/2 Welcome Party!!!!'
p261
aS'The End of the Line WCS Dance'
p262
aS'Caltech Outdoor Summer Movie Series'
p263
aS'Swingin the Blues w/ Kara Frenzel, Ryan, Ben, DJ Larisa'
p264
aS'Palm Springs Summer Swing & Hustle Dance Classic + Roommates Etc'
p265
aS'West Coast Swing & Country 2 Step Dance in the AV'
p266
aS'West Coast Wednesday at Caltech! (South Cat) (07/26)'
p267
aS'Beginner/Intermediate West Coast Swing Week 1! (07/26)'
p268
aS'Tear It Up Tuesday'
p269
aS"#Swungover Monday's!! Flashmob/ JT Practice/ Late Night Dance & Critiques!!"
p270
aS'OC WCS FlashMob Workshop with Rachele Smith'
p271
aS'Cthulhuwocky!'
p272
aS'L.A. South Bay Swing'
p273
aS'Blackout Fridays! Malia San Nicolas Teaching! DJ Aidan & Katie!'
p274
aS'Caltech Carpool to Blackout Friday! (07/21)'
p275
aS'WestieJam ft. The End of the Line! Jade, Chris, and Rachel!'
p276
aS'Westie Sunset Dancing HB'
p277
aS"StB Ben's Bday w/Ben & Victoria, Danny Maika, Chris & DJ Larisa!"
p278
aS'West Coast Wednesday at Caltech! (07/19)'
p279
aS'Beginner West Coast Swing Week 4! (07/19)'
p280
aS'Lounge Night at Tear It Up Tuesday'
p281
aS"Swingin' the Club"
p282
aS'Season 2 Auditions JT Swing Team LA'
p283
aS"#Swungover Monday's! Flashmob/Season 2 Auditions/ DJ Smiley Late Night"
p284
aS"WC Swing Party w/ Chris & Tara - DJ's Carlus & Chris"
p285
aS'Switch It Up! Intensive Weekend!'
p286
aS"Teveya's Surprise Birthday Party"
p287
aS'(Surprise) Messages to Wingo'
p288
aS'West Coast Wednesday at Caltech! (NEW LOCATION) (07/12)'
p289
aS'Beginner West Coast Swing Week 3! (07/12)'
p290
aS"Swingin' the Club"
p291
aS'Tear It Up Tuesday - Solo Track Week'
p292
aS'Location change!! Swungover Monday Simi Valley'
p293
aS'Caltech Carpool to 5050 Swing! (07/08)'
p294
aS'5050 Swing at The Press Box!'
p295
aS'17th Annual Salt Lick BBQ Fundraiser'
p296
aS'Swingin the Blues w/ Ryan, Tara, Ben, DJ Aidan'
p297
aS'Salsa Family Baby Shower'
p298
aS'Phoenix 4th of July 2017'
p299
aS'College Students at Wild Wild Westie 2017'
p300
aS'I want your favorite picture of Ben Morris!'
p301
aS'West Coast Wednesday at Caltech! (NEW LOCATION) (07/05)'
p302
aS'Beginner West Coast Swing Week 2! (07/05)'
p303
aS'Casita Calaveras: July 4th Housewarming'
p304
aS'4th of July Art Show at The Old Mission Santa Barbara'
p305
aS'#Swungover Monday at Caltech!! Flashmob & regular classes return !'
p306
aS"Phil & Mindia 1st Sat. Workshop & Dance: Phil's BDAY, DJ Helen!"
p307
aS'Blackout Fridays! JUNE Takeover Battle - Week 3! Shaheed & Danae'
p308
aS'Caltech Carpool to Blackout Friday! (06/30)'
p309
aS'WestieJam w/ Tony & Larisa, Lance, Kristine, and DJ Tingle'
p310
aS'Caltech Outdoor Summer Movie Series'
p311
aS'Swingin the Blues w/ Nicole Clonch, Ben, Ryan, DJ Larisa'
p312
aS'West Coast Wednesday at Caltech! (NEW LOCATION) (06/28)'
p313
aS'Beginner West Coast Swing Week 1! (06/28)'
p314
aS'Tear It Up Tuesday'
p315
aS"Location Change!!!#Swungover Monday's!JTSwing Auditions /Late Night"
p316
aS'EMERGENCY DONATION OPPORTUNITY'
p317
aS'Hollywood Seminar presents Post: Where the Magic Really Happens'
p318
aS'A cheesy party'
p319
aS'South Bay Swing w/ Isaiah, Carlus & Josie - Djs Helen & Brian'
p320
aS'Short Shorts SF'
p321
aS'WCS Musicality Mini-Intensive at Avant Garde with Ben Morris!'
p322
aS'Swingin the Blues w/ Chris & Tara, Ryan, Ben Mo, DJ BroMance!'
p323
aS'West Coast Wednesday at Caltech! New Location (06/21)'
p324
aS"Swingin' the Club"
p325
aS'Lounge Night at Tear It Up Tuesday'
p326
aS'THE FLOOR Improv Night #110'
p327
aS"#Swungover Monday's!! HEAT Warning Location Change"
p328
aS'Angel City Fusion: Anniversary June 17th'
p329
aS"Instructors Demetre & Malia - DJ's Helen & Demetre"
p330
aS'Blackout Fridays! JUNE Takeover Battle - Week 2! Brian & Katie!'
p331
aS'Caltech Carpool to Blackout Friday! (06/16)'
p332
aS'Graduation Shindig!'
p333
aS"(Surprise) Wingo's Travels"
p334
aS'Caltech Salsa Classes'
p335
aS'Swingin the Blues w/ Mike Eads, Ryan, Malia & DJ Aidan'
p336
aS'Swinging the Blues: WCS & Country Thursdays at Atomic Ballroom'
p337
aS'West Coast Wednesday at Caltech! (06/14)'
p338
aS'#Swungover Monday!! DJ Aidan & DJ Smiley!!'
p339
aS'Special Flashmob Classes!! Learn the 2017 routine!!!'
p340
aS"JJ O'Rama 2017 Disney Dancer Day"
p341
aS'WareHouseLA + The Floor Improv.'
p342
aS'Caltech Salsa Club outing to Sonata Room'
p343
aS'Bye, Rogul!!!'
p344
aS'IMPLiCIT Spring Improv Comedy Show'
p345
aS"Jack & Jill O'Rama 2017 GPDIA Judging Intensive"
p346
aS"Jack & Jill O'Rama 2017"
p347
aS'StB/JJO Thurs w/ John Lindo, Sean & Courtney, Brandi & Forrest!'
p348
aS'Caltech Salsa Lessons'
p349
aS'West Coast Wednesday at Caltech! (06/07)'
p350
aS'Int/Adv West Coast Swing w/ Samantha Buckwalter! (06/07)'
p351
aS'#Swungover Monday/DJ Smiley & DJ Bellz /Late Night Critique!!!'
p352
aS'Caltech Carpool to 5050 Swing! (06/03)'
p353
aS'5050 Swing at The Press Box!'
p354
aS"Why not party At Jay's"
p355
aS'Blackout Fridays! JUNE Takeover Battle - Week 1! Helen & Aidan'
p356
aS'Caltech Carpool to Blackout Friday! (06/02)'
p357
aS'Swoukin the Blues w/ Larissa & Victoria, DJ Larisa & John Peters'
p358
aS'Caltech Salsa Classes'
p359
aS'West Coast Wednesday at Caltech! (05/31)'
p360
aS'Int/Adv West Coast Swing w/ Samantha Buckwalter! (05/31)'
p361
aS'A Conversation with Dr. Peter Robinson'
p362
aS"Mauricio's Graduation Party"
p363
aS'Pre-Graduation Celebration'
p364
aS'FreZno Dance Classic 2017'
p365
aS'Caltech Bachata class'
p366
aS'Swingin the Blues w/ Mary Ann Nunez, Ryan, Samantha, DJ Helen'
p367
aS'West Coast Wednesday at Caltech! (05/24)'
p368
aS'Beginner/Intermediate West Coast Swing Week 2! (05/24)'
p369
aS"Deniz's U.S. Citizenship Celebration!"
p370
aS"Swingin' the Club #51"
p371
aS"#Swungover Monday's/ JTSwing Team/ Late Night Critique!!"
p372
aS"WCS Party w/ Instructors Tony & Larisa, DJ's Aidan & Larisa"
p373
aS'2nd Annual Dance Camp'
p374
aS'Blackout Fridays! Samantha Buckwalter/DJ Aidan & DJ Smiley!'
p375
aS'Caltech Carpool to Blackout Friday! (05/19)'
p376
aS'WestieJam w/ Brandi, Chris & Rachel, Lance, & DJ Chung Fu Panda'
p377
aS'Swingin the Blues W/ Kara, Malia, Sam, DJ BroMance'
p378
aS'Caltech Salsa Classes'
p379
aS'West Coast Wednesday at Caltech! (05/17)'
p380
aS'Beginner/Intermediate West Coast Swing Week 1! (05/17)'
p381
aS'Taste of Pasadena Ride'
p382
aS"#Swungover Monday's!!/ JTSwing Team/ DJ Aidan"
p383
aS'The Floor Improv Night 109'
p384
aS'5050 Swing at The Press Box!'
p385
aS'Blackout Fridays! Back to Black TWO WEEKS in a row!'
p386
aS'Caltech Carpool to Blackout Friday! (05/12)'
p387
aS'Caltech Carpool to Atomic! (05/11)'
p388
aS'Swingin the Blues w/ Demetre, Ben, Sam, DJ Aidan!'
p389
aS'West Coast Wednesday at Caltech! (05/10)'
p390
aS"Elisabeth's Masters Recital"
p391
aS'Beginner West Coast Swing Review Week! (05/10)'
p392
aS"#Swungover Monday's!!/ JT Swing Teams/DJ Aidan"
p393
aS'Yoga Social - Huntington Beach'
p394
aS'Sunday afternoon Guardians of the Galaxies 2 outing'
p395
aS'TSF Movie Night: The True Cost'
p396
aS'Swingin the Blues w/ Ben, Samantha, DJ Jumpin Jack!'
p397
aS'SwingDiego Dance Championships 2017'
p398
aS'SwingDiego - WanderingWestie Tour 2017 S2'
p399
aS'Finals Study Break Swing'
p400
aS'West Coast Wednesday at Caltech! (05/03)'
p401
aS'Beginner West Coast Swing Week 4! (05/03)'
p402
aS'Untucked Workwear Official Launch Party'
p403
aS'Colleen visited this place'
p404
aS"Swingin' the Club #48"
p405
aS'#Swungover Monday Pre-SwingDiego Party/Late Night Critique!!'
p406
aS'WCS Sun, NO Contest and Guest DJ Helen Tocco!'
p407
aS"Wendy Smith's (not private) Birthday!"
p408
aS'5th Saturday with Carlus & Josie'
p409
aS'GSC Formal 2017'
p410
aS'Saturday WCS Lessons with Social Dancing!'
p411
aS'Bollywood Party'
p412
aS"La Invasion: WestieJam's 2 year Anniversary Party!"
p413
aS'\xe2\x9c\xb3 Photography Exhibition 2017 \xe2\x9c\xb3'
p414
aS'Swingin the Blues w/ Brandi Guild, Ben, Samantha, DJ Aidan'
p415
aS'West Coast Wednesday at Caltech! (04/26)'
p416
aS'Beginner West Coast Swing Week 3! (04/26)'
p417
aS"Swingin' the Club #47"
p418
aS'Tear It Up Tuesday'
p419
aS"Swingin' The Club #47"
p420
aS'#Swungover Monday /Workin The Blues Night!'
p421
aS'WCS Sun, Novice Mixed Level Strictly and Guest DJ Brian Sforzo!'
p422
aS'Saturday West Coast Swing Lessons!'
p423
aS'March for Science - Los Angeles'
p424
aS'Caltech @LA Science March!'
p425
aS'Final Friday Night Swing!'
p426
aS'Blackout Fridays! Throwback Friday w/ DJ Shaheed & DJ Aidan!'
p427
aS'Caltech Carpool to Blackout Friday! (04/21)'
p428
aS'Caltech Carpool to Atomic! (04/20)'
p429
aS'StB College Night w/ Ben & Victoria, Kurt Hunter LIVE, DJ Helen!'
p430
aS'Science March Party!'
p431
aS'West Coast Wednesday at Caltech! (04/19)'
p432
aS'Beginner West Coast Swing Series! (Week 2: 04/19)'
p433
aS"Swingin' the Club #46"
p434
aS'Lounge Night at Tear It Up Tuesday'
p435
aS"#Swungover Monday's!!"
p436
aS'Art Gallery Opening Gala'
p437
aS"WCS Party DJ's Helen Tocco & Karl Olney"
p438
aS'Saturday East Coast/Lindy Hop Lessons'
p439
aS'Swingin the Blues w/ Michael Kielbasa, Ben, Ryan, DJ BroMance'
p440
aS'Caltech Cuban salsa classes'
p441
aS'Swinging the Blues: WCS & Country Thursdays at Atomic Ballroom'
p442
aS"Sway'd at Seattle Easter Swing"
p443
aS'West Coast Wednesday at Caltech! (04/12)'
p444
aS'Beginner West Coast Swing Series! (Week 1: 04/12)'
p445
aS'Tear It Up Tuesday - Solo Track Week'
p446
aS"#Swungover Monday's!!/ Late Night Critique Sesh!"
p447
aS'WCS Sunday, Open Jack and Jill, Guest DJ Helen Tocco!'
p448
aS'5050 Swing at The Press Box!'
p449
aS"Yuri's Night Los Angeles"
p450
aS'Saturday East Coast/Lindy Hop Lessons'
p451
aS'Int/Adv West Coast Swing Workshop with Ryan & Samantha'
p452
aS'Caltech Carpool to BOF after the Dance Show!! (04/07)'
p453
aS'Friday Night Swing!'
p454
aS'Blackout Fridays! Ryan Crutcher / DJ Tocco & DJ Nae Nae'
p455
aS'2017 Caltech Dance Show'
p456
aS'Caltech Cuban salsa classes'
p457
aS'Swingin the Blues w/ Carlus & Josie, Ben, Ryan, DJ Mike Anderson'
p458
aS'West Coast Wednesday at Caltech! (04/05)'
p459
aS"#Swungover Monday's!!"
p460
aS'West Coast Swing Lessons!'
p461
aS'LA!!! So Cal Westy Tribe kick off meeting!'
p462
aS'Dinner of Angels!'
p463
aS'Noche Tropical'
p464
aS'StB/COA Earlybird Party with Demetre, DJ Duo Victor & Larisa'
p465
aS'City of Angels Swing 2017'
p466
aS'West Coast Wednesday at Caltech! (03/29)'
p467
aS'Tuesday Swing Practicum!'
p468
aS'Tear It Up Tuesday'
p469
aS"#Swungover Monday's! Bella & Lindiwe's Birthdays!!!"
p470
aS'WCS Sunday, Open Jack and Jill, Guest DJ Brian Sforzo!'
p471
aS'Jay Byam\xe2\x80\x99s BBQ Potluck and Dance Workshop'
p472
aS'CicLAvia - Culver City Meets Venice'
p473
aS'Friday Night Swing!'
p474
aS'Swingin the Blues w/ Maxime and Torri Zzaoui, DJ Larisa'
p475
aS'The Boston Tea Party 2017'
p476
aS'West Coast Wednesday at Caltech! (03/22)'
p477
aS'Tuesday Swing Practicum'
p478
aS'Lounge Night at Tear It Up Tuesday'
p479
aS"#Swungover Monday's! DJ Aidan & Late Night Party"
p480
aS'WCS Sunday, ADV Prog J&J Contest, Guest DJ Helen Tocco!'
p481
aS'Beaver Boogie 2017'
p482
aS"Ye Ol' St. Paddy's day"
p483
aS'Caltech Carpool to Blackout Friday! (03/17)'
p484
aS"Blackout Fridays! Women's Day & St. Paddy's Day!"
p485
aS'WestieJam w/ Chris Dumond, Lance, Mike & Sam, DJ Lance & Mike'
p486
aS'Swingin the Blues w/ Malia, Ben, Tara, DJ Aidan'
p487
aS'West Coast Wednesday at Caltech! (03/15)'
p488
aS'Banff Mountain Film Festival by Caltech Alpine Club'
p489
aS"Swingin' The Club #41 - Ben Morris!"
p490
aS'#SwungoverMonday! DJ Aidan & Late Night Party'
p491
aS'WCS Sunday, No Contest, Guest DJ!'
p492
aS'5050 Swing at The Press Box!'
p493
aS'ZOUK in the Valley Grand Opening - with Bruno & Olga!'
p494
aS'2017 High Desert Dance Classic!'
p495
aS'Swingin the Blues w/ Tony & Larisa, Demetre, Helen'
p496
aS"Katie's Quarter Century Birthday Bash"
p497
aS'West Coast Wednesday at Caltech! (03/08)'
p498
aS'Tuesday Swing Practicum!'
p499
aS'Lounge Night at Tear It Up Tuesday'
p500
aS'Los Angeles City & County Election \xe2\x80\x94 March 7th, 2017'
p501
aS'WCS Sunday, Nov/Int and Master Progressive J&J'
p502
aS'NightFury DangerField House Warming'
p503
aS'Saturday Lindy Hop/East Coast Swing Lessons'
p504
aS'Friday Night Swing!'
p505
aS'Blackout Fridays! Allstar Boyz Take Over! Aidan & Brian!'
p506
aS'Caltech Carpool to Blackout Friday! (03/03)'
p507
aS'Salsa lessons and party at Caltech'
p508
aS'Swingin the Blues w/ Ryan, Tara, Ben, DJ Jumpin Jack'
p509
aS'MADjam 2017'
p510
aS'West Coast Wednesday at Caltech! (03/01)'
p511
aS'Beginner West Coast Swing Series! (Last Week: 03/01)'
p512
aS"Open Gathering in Support of Caltech's International Scholars"
p513
aS'Tuesday Swing Practicum!'
p514
aS'Tear It Up Tuesday'
p515
aS"Swingin' The Club #39 - Isaiah / DJ Aidan"
p516
aS"#Swungover Monday's! DJ Aidan/ JT Swing Teams"
p517
aS'WCS Sunday, Advanced Progressive J&J'
p518
aS'TSF Movie Night: The Burden'
p519
aS'Mardi Gras Party'
p520
aS'Saturday Lindy Lessons!'
p521
aS'Cha-Cha/Swing Lessons with CCBDC, CCSwing and Treats'
p522
aS'Company by Stephen Sondheim - presented by Theater Arts Caltech'
p523
aS'WestieJam w/ Tara Trafzer, Oscar, Mike & Sam, #FlannelFebruary'
p524
aS'Swingin the Blues w/ Alyssa Glanville, Ben, Ryan, DJ Manderson'
p525
aS'West Coast Wednesday at Caltech! (02/22)'
p526
aS'Beginner West Coast Swing Series! (Week 5: 02/22)'
p527
aS'Alcoholic Boba Night'
p528
aS'5280 Westival'
p529
aS'Tuesday Swing Practicum'
p530
aS'Lounge Night at Tear It Up Tuesday'
p531
aS'#Swungover Monday/ DJ Aidan & late night Critique!'
p532
aS"WCS Sunday, NO Contest, OPEN Dancing ALL Night!! Martin DJ's!"
p533
aS'Caltech-Occidental Concert Band'
p534
aS"Not My President's Day Party"
p535
aS"WCS Party - DJ's Aidan Keith-Hynes & Bromance"
p536
aS'West Coast Swing Lessons!'
p537
aS'Blackout Fridays! Helen Tocco & Brian Sforzo!'
p538
aS'Caltech Carpool to Blackout Friday! (02/17)'
p539
aS'Swingin the Blues w/ Demetre, Ben, DJ BroMance'
p540
aS'Living in Space - An Innovate Pasadena Meetup (Feb 2017)'
p541
aS'West Coast Wednesday at Caltech! (02/15)'
p542
aS'Beginner West Coast Swing Series! (Week 4: 02/15)'
p543
aS'#Swungover Monday Back to Burbank! DJ Aidan & JT Swing Team'
p544
aS'WCS Sunday, Nov/Int and Masters Progressive J&J'
p545
aS'5050 Swing at The Press Box!'
p546
aS'Pasadena Public Library Concert'
p547
aS'Saturday Lessons - West Coast Swing'
p548
aS'Friday Night Swing!'
p549
aS'Science and Salsa'
p550
aS'Swingin the Blues w/ Nicole Clonch, Demetre, Ryan, DJ Larisa'
p551
aS'West Coast Wednesday at Caltech! (02/08)'
p552
aS'#Swungover Monday'
p553
aS'WCS Workshops w/ Champion dancer Demetre Souliotes!'
p554
aS'Launch Party!'
p555
aS'BAMEO Intensive at DanScene'
p556
aS'Easter Swing Ticket Tournament'
p557
aS'Blackout Fridays! BAMEO aka Ben McHenry & Cameo Cross /DJ Meechy'
p558
aS'Caltech Carpool to Blackout Friday! (02/03)'
p559
aS'Swingin the Blues w/ Steve Neeren from NYC, Meech, & Ryan!'
p560
aS'Dancing Roosters Party'
p561
aS'West Coast Wednesday at Caltech! (02/01)'
p562
aS'Street SWING - Kick off! Sonny Demetre Helen Aidan Brian NaeNae'
p563
aS'#Swungover Monday/ Class & Late Night Dance/ Critique Sesh!'
p564
aS"Thank Goodness it's Swinging Saturday!"
p565
aS'Pipedreams: A Hyperloop Meetup'
p566
aS'Avant Garde West Coast Swing Workshop w/ Ben Morris!'
p567
aS'Swing Saturdays: Lindy Hop'
p568
aS'Caltech Carpool to Claremont! (01/27)'
p569
aS'Friday Swing with Caltech!'
p570
aS'Salsa lessons and party at Caltech'
p571
aS'Swingin the Blues Carlito Bday w/ Chris & Tara, Ben, Meech, Jack'
p572
aS'West Coast Wednesday at Caltech! (01/25)'
p573
aS'Beginner West Coast Swing Series! (Week 2: 01/25)'
p574
aS'#Swungover Monday/Back to Burbank Class & Late Night Dance'
p575
aS"I'm Turning 30 eeeeeeek!!!!!"
p576
aS"Women's March Los Angeles"
p577
aS'Post-Break Swing Thing'
p578
aS'Blackout Fridays! Demetre Souliotes / DJ Aidan Keith-Hynes!'
p579
aS'Caltech Carpool to Blackout Friday! (01/20)'
p580
aS'WestieJam w/ Brandi Guild, Lance Armstrong, Mike & Samantha'
p581
aS'Swingin the Blues w/ Mary Ann Nunez, Samantha, & Demetre!'
p582
aS'Salsa lessons and party at Caltech'
p583
aS'West Coast Wednesday at Caltech! (01/18)'
p584
aS'Beginner West Coast Swing Series! (Week 1: 01/18)'
p585
aS'First Swing Class 2017!'
p586
aS'Tear It Up Tuesday - Solo Track Week'
p587
aS'Swungover Monday/Back to BurbankClass & Late Night Dance'
p588
aS"ZOUK It Like It's HOT ~ BRUNO's Bday-Special Guests-Performances"
p589
aS'Caltech Salsa Lessons and Party'
p590
aS'Swingin the Blues w/ Carlus & Josie, Ben, Demetre, DJ Larisa'
p591
aS'West Coast Wednesday at Caltech! (01/11)'
p592
aS'Monterey Swingfest 2017'
p593
aS'Lounge Night at Tear It Up Tuesday'
p594
aS'JT Swing Team LA'
p595
aS'#Swungover Monday/ Back to Burbank!!'
p596
aS"Grand Re-Opening at Danscene! PLUS Progressive Jack and Jill's!"
p597
aS'Sunday Football Dash'
p598
aS'Phil Adams & Mindia Robin: 1st Saturday Workshop & Swing Dance!'
p599
aS'Blackout Fridays! 2017 Kickoff with The Andersons & DJ NaeNae'
p600
aS'Caltech Carpool to Blackout Friday! (1/6)'
p601
aS'Swingin the Blues w/ Matt & Samantha, Demetre, Ryan, DJ Aidan!'
p602
aS'West Coast Wednesday at Caltech! (01/04)'
p603
aS'BudaFest 2017'
p604
aS'Swayd365: The Anniversary Extravaganza'
p605
aS'Events from 2016'
p606
aS'BDay/New Year Celebration'
p607
aS'Swingin the Blues w/ Malia, Ryan and DJ Bromance'
p608
aS"Palm Springs New Year's Swing Dance Classic"
p609
aS"ZOUK It Like It's HOT with Bruno & Olga at Atomic on Thursdays"
p610
aS'Swingin the Blues Holiday Party w/Benji Schwimmer & Danny Maika!'
p611
aS'Rachele Teaches @ 6:15 tonight!'
p612
aS'West Coast Swing Party'
p613
aS'Ken Bone Holiday Sweaterpalooza'
p614
aS'Caltech Carpool to Blackout Friday! (12/16)'
p615
aS'Blackout Christmas! 2nd Annual White Elephant Jack & Jill!'
p616
aS"ZOUK It Like It's HOT with Bruno & Olga at Atomic on Thursdays!"
p617
aS'Swingin the Blues w/Michael Kielbasa, Ben Mo, Malia, DJ Helen!'
p618
aS'West Coast Wednesday at Caltech! (12/14)'
p619
aS"Swingin' The Club #29"
p620
aS'Swungover Monday at Caltech! JT Swing Teams Meeting/ Late Night Critique!!'
p621
aS'Final(s) Swing'
p622
aS'Ugly Sweater Chipotle Christmas Party!!!!'
p623
aS"GoFundMe to Replace Mike & Sam's Stolen Car"
p624
aS"ZOUK It Like It's HOT - Olga's Birthday Party! (WITH CAKE :D)"
p625
aS'Swingin the Blues w/ Tony & Larisa, Demetre, Malia, DJ BroMance'
p626
aS'West Coast Wednesday at Caltech! (12/07)'
p627
aS'Lounge Night at Tear It Up Tuesday'
p628
aS'Swungover Monday at Caltech! Dexters Birthday !!'
p629
aS"Ivan's Birthday Party - Board Games And Hanging Out"
p630
aS'Int/Adv Standard Workshop 2 w/ Viktorija'
p631
aS'Winter Fundraiser Showcase'
p632
aS'On Fridays We Wear Orange (at TAP)'
p633
aS'Berkeley West Coast Swing Social'
p634
aS"Swingin the Blues & Zouk It Like It's Hot, TAP & ZAP Early Bird"
p635
aS'The After Party - A West Coast Swing Experience'
p636
aS'West Coast Wednesday (Int/Adv with Doug and Nicki Silton)'
p637
aS"Swingin' The Club #28 - The PrePARTY! - Aidan's BDay!"
p638
aS"Swungover Monday at Caltech! And Aidan's Birthday !!"
p639
aS'Friendsgiving!'
p640
aS'West Coast Wednesday US Open Edition! (11/23)'
p641
aS'Nov 22: US Open Wed. Pre-Party w/ Sonny, Ben & DJ Jumpin Jack'
p642
aS"Joel's Birthday"
p643
aS"Swingin' The Club #27"
p644
aS'Swungover Monday at Caltech! Pre US OPEN (11/21)'
p645
aS'Beginner West Coast Swing Series! (Final Week: 11/21)'
p646
aS'Thanksgiving Potluck'
p647
aS"DanScene's 28 Year Anniversary Celebration"
p648
aS'Blackout Fridays! Beverly Brunerie / DJ Danae & DJ Meechy'
p649
aS'Caltech Carpool to Blackout Friday! (11/18)'
p650
aS"ZOUK It Like It's HOT - Special guests Kadu and Larissa!"
p651
aS'StB College Night w/ Ben & Victoria, DJs Helen & John Peters'
p652
aS'West Coast Wednesday at Caltech! (11/16)'
p653
aS'Zouk Club OC w/ Brunno & Paula PLUS WCS w/ Lance Armstrong'
p654
aS"Swingin' The Club #26"
p655
aS'Swungover Monday at Caltech! (11/14)'
p656
aS'Beginner West Coast Swing Series! (Week 5: 11/14)'
p657
aS'5050 Swing at The Press Box!'
p658
aS'WCS Workshops with Carlus & Josie Reed & DJ Bromance!'
p659
aS'Saturday Swing'
p660
aS'Int/Adv West Coast Swing Workshop with Ben Morris'
p661
aS"ZOUK It Like It's HOT with Bruno & Olga at Atomic on Thursdays!"
p662
aS'Swingin the Blues w/ Carlus & Josie, Ben, Sam, DJ Larisa, Zouk'
p663
aS'Int/Adv Latin Workshop 2 w/ Anna Kovalova'
p664
aS'West Coast Wednesday at Caltech! (11/09)'
p665
aS'Zouk Club OC w/ Brunno & Paula PLUS WCS w/ Lance Armstrong'
p666
aS'Cancelled for tonight! :( Sensual Tuesday Nights'
p667
aS"Swingin' The Club #25"
p668
aS'Election Day at Tear It Up Tuesday'
p669
aS'Swungover Monday at Caltech! Late Night Critique Sesh!'
p670
aS'Beginner West Coast Swing Series! (Week 4: 11/07)'
p671
aS'Dapper Strange'
p672
aS'Blackout Fridays! This Friday-Demetre Souliotes & DJ Helen Tocco'
p673
aS'Caltech Carpool to Blackout Friday! (11/04)'
p674
aS"Constantine's Thesis Defense"
p675
aS'Diwali Salsa Birthday Party'
p676
aS'West Coast Wednesday at Caltech! (11/02)'
p677
aS'Zouk Club OC with Brunno Cezar Theodoro & Paula Cavalcanti'
p678
aS'LBC Tango Club Class & Practica!'
p679
aS'LBC Swing Dance Club! Now w Beginner and Intermediate levels!'
p680
aS'Swungover Monday at Caltech! Halloweenie Dance .. costumes/byob/21+ please'
p681
aS'Beginner West Coast Swing Series! (Review Week)'
p682
aS'Swingin the Blues HST Earlybird Party w/Ben & Victoria, DJ Louis'
p683
aS'Halloween SwingThing 2016'
p684
aS'Halloween BeachThing'
p685
aS'West Coast Wednesday at Caltech! (10/26)'
p686
aS'LBC Tango Club Class & Practica!'
p687
aS'LBC Swing Dance Club! Now w Beginner and Intermediate levels!'
p688
aS"Swingin' The Club #23"
p689
aS'Swungover Monday at Caltech! (10/24)'
p690
aS'Beginner West Coast Swing Series! (Week 3: 10/24)'
p691
aS'Int/Adv Standard Workshop 1 w/ Karlis Treijs'
p692
aS'Jazz Picnic House Warming Party'
p693
aS'Swingin the Blues w/ Demetre & Kara, Ben, Malia, DJ BroMance'
p694
aS'Paradise Country and Swing Dance Festival'
p695
aS'West Coast Wednesday at Caltech! (10/19)'
p696
aS"Swingin' The Club #22"
p697
aS'Swungover Monday at Caltech! (10/17)'
p698
aS'Beginner West Coast Swing Series! (Week 2: 10/17)'
p699
aS"Jay's 30th Birthday"
p700
aS'Steuben House re-re-warming party'
p701
aS'Caltech Tango kick-off party'
p702
aS"Blackout Fridays! Mary Ann Nunez! & Mary Ann's Music Box!"
p703
aS'Caltech Carpool to Blackout Friday! (10/14)'
p704
aS'Salsa and Bachata lessons at Caltech'
p705
aS'Swingin the Blues w/ Ryan & Beverly, Ben, Malia, DJ Jumpin Jack'
p706
aS'Int/Adv Latin Workshop 1 with Karlis Treijs'
p707
aS'West Coast Wednesday at Caltech! (10/12)'
p708
aS'Zouk Club OC with Brunno Cezar Theodoro & Paula Cavalcanti'
p709
aS'Swungover Monday at Caltech! (10/10)'
p710
aS'Beginner West Coast Swing Series! (Week 1: 10/10)'
p711
aS'Thursday West Coast'
p712
aS'Salsa Basketball night'
p713
aS'West Coast Wednesday at Caltech! (10/05)'
p714
aS'Lounge Night at Tear It Up Tuesday'
p715
aS'Swungover Monday at Caltech! Mock J&J/ Boogie BB prep!!'
p716
aS'Friday Night Swing #2'
p717
aS'Bodies & Ink: Celebrating National Banned Books Week'
p718
aS'Caltech Salsa Lessons and Party'
p719
aS'Swingin the Blues w/Scorched Earth, Ben, Ryan, Meech & DJ Larisa'
p720
aS'Scorched Earth Returns 2 Atomic'
p721
aS'West Coast Wednesday at Caltech! (09/28)'
p722
aS"Swingin' The Club #19"
p723
aS'Swungover Monday at Caltech! (09/26)'
p724
aS"Thank Goodness It's Swingin' Saturday- September 24th w/DJ Aidan"
p725
aS"Neil's Birthday Board Game Bonanza"
p726
aS'Caltech Carpool to Blackout Friday! (09/23)'
p727
aS'Swingin the Blues w/ Kara Frenzel, Ben, Demetre, DJ Helen'
p728
aS'West Coast Wednesday at Caltech! (Grad Oreintation Edition)'
p729
aS'Swungover Monday at Caltech! Choreo Class & Late Night Critique'
p730
aS"DanScene's 3rd Saturday West Coast Swing Party"
p731
aS'Friday Night Swing!'
p732
aS'West Coast Wednesday at Caltech! (09/14)'
p733
aS'Swungover Monday at Caltech! (09/12)'
p734
aS'Board Games Afternoon'
p735
aS'Blackout Fridays! Kara Frenzel / DJ Karl Olney!'
p736
aS'Caltech Carpool to Blackout Friday! (09/09)'
p737
aS'Yosemite and Tuolumne climbing pt4?'
p738
aS'Swingin the Blues w/ Nicole Clonch, Ryan, DJ Demetre'
p739
aS'The ESS Camp Phoenix'
p740
aS'West Coast Wednesday at Caltech! (09/07)'
p741
aS'USC Ballroom Scavenger Hunt 2016'
p742
aS'West Coast Wednesday at Caltech! (08/31)'
p743
aS'USC Ballroom Dance Team: First Foxtrot Class'
p744
aS"Swingin' The Club #16"
p745
aS'#Swungover Monday Caltech edition & Late Night Critque Sesh!'
p746
aS'USC Ballroom Dance Team: First Cha-Cha Class'
p747
aS'OC West Coast Swing DC Sundays'
p748
aS'Summer Nerd Nite 2016'
p749
aS'TGIS! "Thank Goodness It\'s Swingin\' Saturday" August 27th with DJ Aidan Keith-Hynes'
p750
aS'You know what ;)'
p751
aS'Caltech Carpool to Atomic! (08/25)'
p752
aS'Olympic Games Dance Party'
p753
aS'Swingin the Blues 8 Yr Anniversary w/ Jordan & Tatiana, DJ Extravaganza!'
p754
aS'West Coast Wednesday at Caltech! (08/24)'
p755
aS"#Swungover Monday's @ Caltech!"
p756
aS'Astronomy on Tap'
p757
aS"DanScene's 3rd Saturday West Coast Swing Party"
p758
aS'Special WCS Calabasas Aug. 20th'
p759
aS"DENIZ'S HORSE-AND-BUGGY NAMEDAY TOURNEY!!!"
p760
aS'Blackout Fridays! Carlus & Josie Reed / DJ Bromance!'
p761
aS'Caltech Carpool to Blackout Friday! (08/19)'
p762
aS'Swinging the Blues: WCS & Country Thursdays at Atomic Ballroom'
p763
aS"You've checked in to Atomic Ballroom Irvine before"
p764
aS'West Coast Wednesday at Caltech (Int/Adv feat. Samantha Buckwalter)'
p765
aS"Swingin' The Club #14"
p766
aS'#Swungover Monday @ Caltech'
p767
aS'CicLAvia - Iconic Wilshire Blvd'
p768
aS'Caltech Ballroom Dance Camp 2016'
p769
aS"Palm Springs Summer - Meech'n'Malia Table"
p770
aS'Swingin the Blues w/ Kyle & Sarah, Ben, Samantha, DJ Jumpin Jack!'
p771
aS'DJ Bromance Table @Palm Springs Summer Swing'
p772
aS'West Coast Wednesday at Caltech!'
p773
aS"#Swungover Monday's @ Caltech"
p774
aS"Swingtacular MCS/ Kyra's bday party"
p775
aS'Blackout Fridays! Phil Adams, Mindia Robin, DJ Aidan!'
p776
aS'Caltech Carpool to Blackout Friday! (07/08)'
p777
aS'Swingtacular: The Galactic Open 2016 (Official)'
p778
aS'Cuban Salsa Night'
p779
aS'Swingin the Blues w/ Carlus & Josie, Ryan, Samantha, DJ Larisa'
p780
aS'West Coast Wednesday at Caltech (Int/Adv feat. Carlus and Josie Reed)'
p781
aS"Swingin' The Club #13"
p782
aS'#Swungover Monday @ Caltech!'
p783
aS'Beginner West Coast Swing Series! (Week 6)'
p784
aS'WESTYGROOVE #1 - JESSI ROHR'
p785
aS'Board Games!'
p786
aS'5th Saturday WCS at the Clubhouse!'
p787
aS'USC Summer Salsa Night!'
p788
aS'Swingin the Blues w/ Chris & Tara, Ryan, Demetre, DJ Helen'
p789
aS'West Coast Wednesday at Caltech!'
p790
aS"Swingin' The Club #12"
p791
aS'Beginner West Coast Swing Series! (Week 5)'
p792
aS"#Swungover Monday's @Caltech!!!"
p793
aS'Smorgasburg L.A. Food Adventure!'
p794
aS'TGIS! "Thank Goodness It\'s Swingin\' Saturday" July 23rd with DJ Aidan Keith-Hynes'
p795
aS'Blackout Fridays! Demetre Souliotes, Christopher Chung, & Rachel Rivera + Zouk Room!'
p796
aS'Caltech Carpool to Blackout Friday! (07/08)'
p797
aS'Board Games!'
p798
aS'Salsa and Bachata Summer Icecream Social'
p799
aS'Swingin the Blues w/ Samantha, Ben, Ryan, DJ Demetre'
p800
aS'West Coast Wednesday at Caltech (Int/Adv feat. Samantha Buckwalter)'
p801
aS"Swingin' The Club #11"
p802
aS"Let's hit The Floor!"
p803
aS'Beginner West Coast Swing Series! (Week 4)'
p804
aS'#Swungover Monday @ Caltech!!!'
p805
aS'Board Games!'
p806
aS"DanScene's 3rd Saturday West Coast Swing Party"
p807
aS'Dance Pool Party'
p808
aS'Come Get Margs With Me!'
p809
aS'Swingin the Blues w/ Mary Ann Nunez, Ben, Ryan, DJ BroMance'
p810
aS'La Fete Nationale - Salsa Edition'
p811
aS'West Coast Wednesday at Caltech!'
p812
aS'Beginner West Coast Swing Series! (Week 3)'
p813
aS'#Swungover Monday @ Caltech!!'
p814
aS'Fun Night with The House Arrest Band'
p815
aS'Blackout Fridays! Ryan Crutcher - Demetre Souliotes'
p816
aS'Caltech Carpool to Blackout Friday! (07/08)'
p817
aS"StB Ben's 30th Bday w/ Benji Schwimmer, Dylan Chambers LIVE, DJ Helen"
p818
aS'American Salsa party'
p819
aS'West Coast Wednesday at Caltech (No Int/Adv Lesson Tonight)'
p820
aS'Lounge Night at Tear It Up Tuesday'
p821
aS'July 3rd Pool Party, Cookout, and 1776'
p822
aS'Khayree\'s ("Surprise") Atomic Birthday'
p823
aS'Back to Prom Salsa Party'
p824
aS'Swingin the Blues w/ Kara, Ben, Ryan & DJ Brian'
p825
aS'West Coast Wednesday at Caltech!'
p826
aS"Swingin' The Club #9"
p827
aS'Beginner West Coast Swing Series! (Week 2)'
p828
aS'#Swungover Monday Zouk Invasion #3'
p829
aS'Yet another June bday party'
p830
aS"Thank Goodness it's Swinging Saturday!"
p831
aS'WestieJam with Nicole Clonch, Mike & Samantha, Oscar Hampton and DJ Aidan Keith-Hynes'
p832
aS'Swingin the Blues w/ Ryan, Ben, Samantha & DJ Aidan'
p833
aS'California summer dance lessons and party'
p834
aS'West Coast Wednesday at Caltech (Int/Adv feat. Samantha Buckwalter)'
p835
aS'Beginner West Coast Swing Series! (Week 1)'
p836
aS"DanScene's 3rd Saturday West Coast Swing Party"
p837
aS'*Dylan come up with party name*'
p838
aS'Blackout Fridays! - Triology DJ Battle Tie Breaker!'
p839
aS'Caltech Carpool to Blackout Friday! (06/17)'
p840
aS'Swingin the Blues w/ Steve Neeren from NYC'
p841
aS'Summer Salsamor'
p842
aS"West Coast Wednesday at Caltech! (Post JnJ O'rama!)"
p843
aS"#Swungover Monday's!"
p844
aS'Los Angeles Rally and Vigil for Orlando'
p845
aS"JJ O'Rama 2016 Disney Dancer Day"
p846
aS"Jack & Jill O'Rama Slumber Party"
p847
aS"Swingin the Blues Jack & Jill O'Rama Earlybird Party w/ Sean & Courtney, Ben, DJs Helen & Forrest"
p848
aS"Jack & Jill O'Rama 2016"
p849
aS'West Coast Wednesday at Caltech (Int/Adv feat. Samantha Buckwalter)'
p850
aS"#Swungover Monday's !!"
p851
aS"Laser Tag For Emily's 24th"
p852
aS'Blackout Fridays! 1 YEAR Anniversary!'
p853
aS'Caltech WCS carpool to Blackout Friday!! (06/03)'
p854
aS'Swingin the Blues w/ Nicole Clonch, DJ Shaheed, Soul Hour'
p855
aS'West Coast Wednesday at Caltech!'
p856
aS'Outdoor Swing Dancing at Tongva Park in Santa Monica'
p857
aS'Techstock 2016 (feat. Bowling for Soup)'
p858
aS'30 Day Challenge June 2016'
p859
aS'The Birth of the Fantastic Four: Rath of Al Fresco'
p860
aS'STB Hipster Guys Night w/ Jordan, Ben, Bromance, Shaheed & Ryan'
p861
aS'Atomic Meets Scorched Earth'
p862
aS'West Coast Wednesday at Caltech (Int/Adv feat. Samantha Buckwalter)'
p863
aS"Swingin' The Club #4"
p864
aS'#Swungover Monday College Night!!'
p865
aS'Beginner West Coast Swing Class! Week 6!'
p866
aS"DanScene's 3rd Saturday West Coast Swing Party"
p867
aS'BLACK OUT FRIDAYS - THE TRILOGY! DJ BATTLE & CLASS TAKE-OVER - Week # 6'
p868
aS'Caltech WCS carpool to Blackout Friday!! (5/20)'
p869
aS'Stb Guys vs Girls Challenge - Girls Night w/ Tatiana, Helen, Larisa, Malia, & Nicole'
p870
aS'West Coast Wednesday at Caltech!'
p871
aS"Swingin' The Club #3 - Helen Tocco's B-Day Bash"
p872
aS'#Swungover Monday!'
p873
aS'Beginner West Coast Swing Class! Week 5!'
p874
aS'OASIS Annual Show'
p875
aS'Swingin the Blues w/ Jumpin Jack Smith, Ben Mo, Samantha'
p876
aS'Finals Swing!'
p877
aS'West Coast Wednesday at Caltech (Int/Adv feat. Samantha Buckwalter)'
p878
aS'#Swungover Monday Zouk Invasion Part #2 Feat. Bruno & Olga (ISDC)'
p879
aS'Beginner West Coast Swing Class! Week 4!'
p880
aS'Kaskade - Los Angeles, CA - Los Angeles Convention Center'
p881
aS'BLACK OUT FRIDAYS - THE TRILOGY! DJ BATTLE & CLASS TAKE-OVER - Week # 5'
p882
aS'Caltech WCS carpool to Blackout Friday! (5/06)'
p883
aS'Swingin the Blues w/ Patty Vo, Samantha, Ryan, DJ BroMance'
p884
aS'West Coast Wednesday at Caltech!'
p885
aS"Swingin' The Club #2 - Carlus Reed & Josie Reed, Demetre, Aidan!"
p886
aS'#Swungover Monday!'
p887
aS'Beginner West Coast Swing Class! Mid Term Week!'
p888
aS'3rd Annual Masquerade Ball'
p889
aS'5th Saturday WCS at the Clubhouse!'
p890
aS'Beer tasting party!'
p891
aS'Flight Hardware shirt order'
p892
aS'West Coast Swing - LA INVASION! Chris and Tara, Liza, Lance and Marylou, DJ Bromance and DJ Meech'
p893
aS'Flying and Falling: Pomona College Spring Dance Concert'
p894
aS'Swingin the Blues w/ Michael Kielbasa, Ben, Tara, DJ Aidan'
p895
aS'Int/Adv West Coast Workshop (feat. Demetre Souliotes) + Social'
p896
aS'West Coast Wednesday at Caltech (Int/Adv feat. Samantha Buckwalter)'
p897
aS'Draft Event'
p898
aS"Swingin' The Club - reGRAND OPENING!!!"
p899
aS"#Swungover Monday's!!"
p900
aS'Beginner West Coast Swing Class! Week 3!'
p901
aS'Acro at the Park + Slackline'
p902
aS'Caltech GSC Formal 2016'
p903
aS'BLACK OUT FRIDAYS - THE TRILOGY! DJ BATTLE & CLASS TAKE-OVER - Week # 4'
p904
aS'Caltech WCS carpool to Blackout Friday! (4/22)'
p905
aS'Caltech WCS carpool to Blackout Friday! (5/04)'
p906
aS'Caltech Dance Party'
p907
aS'Swingin the Blues w/ Kara Frenzel, Ben, Tara, DJ BroMance!!!'
p908
aS'West Coast Wednesday at Caltech!'
p909
aS'#Swungover Monday!'
p910
aS'Beginner West Coast Swing Class! Week 2!'
p911
aS'Diamond Swing WCS Dance Party with Carlus & Josie Reed!'
p912
aS'Contra, because weekends are for dancing'
p913
aS"DanScene's 3rd Saturday West Coast Swing Party"
p914
aS'Caltech/JPL DIY Day!'
p915
aS'Birthday (Life) Celebration'
p916
aS'Neuroscience Dance Party'
p917
aS'Swingin the Blues w/ Carlus & Josie, Demetre, Samantha, DJ Helen'
p918
aS'Int/Adv West Coast Workshop Featuring Bella Viramontes (Social afterwards!)'
p919
aS"#Swungover Monday's!!! ZOUK INVASION"
p920
aS'Beginner West Coast Swing Class! Week 1!'
p921
aS'Caltech Dance Show After-Party to Blackout Friday! (4/8)'
p922
aS'BLACK OUT FRIDAYS - THE TRILOGY! DJ BATTLE & CLASS TAKE-OVER - Week # 3'
p923
aS'Caltech Dance Show 2016'
p924
aS'Swingin the Blues College Night w/ Benji Schwimmer, Ben, Tara, DJ Larisa, DJ John Peters'
p925
aS'Pre Caltech Dance Show West Coast Wednesday at Caltech!'
p926
aS'Tuesday Practice (with pro tips!)'
p927
aS"#Swungover Monday's Post CofA Party!"
p928
aS'Holi at Caltech!'
p929
aS'GSC Term Party ~ HIPPIES vs. PREPS'
p930
aS'A Birthday Thing'
p931
aS"Bob's Birthday Week Dancing Celebration"
p932
aS'Mathematics Dance Party'
p933
aS'Swingin the Blues/City of Angels Earlybird Party with musician Ernie Halter LIVE!!!'
p934
aS'A normal West Coast Wednesday Social at Caltech!'
p935
aS'Saturday matinee lunch+movie: Mr. Batman v Superman'
p936
aS'Salsa/West Coast Swing Party!'
p937
aS'Come Dance With Us At The Ranch Saloon'
p938
aS'Swingin the Blues w/ Lee & Fabienne, Ben, Demetre, POWER OUT NO DANCE'
p939
aS'Salsa classes and social dancing Nowruz edition'
p940
aS'ANOTHER Int/Adv West Coast Workshop Featuring Aidan Keith-Hynes (Social afterwards!)'
p941
aS"#Swungover Monday's!!"
p942
aS'Caltech Women in Chemistry Annual Seminar'
p943
aS'Board Games!'
p944
aS'Nowruz 2016- Persian New Year'
p945
aS'Contra !'
p946
aS'(Re)Turn Down For What? Episode II'
p947
aS'BLACK OUT FRIDAYS - THE TRILOGY! DJ BATTLE & CLASS TAKE-OVER - Week # 2'
p948
aS'Caltech goes to Blackout Friday! (3/18)'
p949
aS'Caltech WCS goes Nuclear (to Atomic! Tonight 3/17)'
p950
aS"Salsa lessons and St. Patty's Party"
p951
aS"Swingin the St. Patty's Day Blues w/ Jake Hitt LIVE, Chris Dumond, Ben Mo, Demetre!!!"
p952
aS"Ivan's Secret Candidacy Party"
p953
aS'Int/Adv West Coast Workshop with Malia San Nicolas (Social afterwards!)'
p954
aS"#Swungover Monday's!!"
p955
aS'High Desert Dance Classic 2016!'
p956
aS'High Desert Dance Classic'
p957
aS'Swingin the Blues w/ Brandi Guild, Ben Mo, Demetre, DJ Helen'
p958
aS'Salsa lessons at Caltech \xe2\x80\x93 International Women\xe2\x80\x99s Day edition'
p959
aS"Katie's Nuclear Birthday Bash"
p960
aS'West Coast Wednesday! (Pre-finals dance!)'
p961
aS'Outdoor Swing Dancing - CANCELED DUE TO OVERWHELMING DEMAND'
p962
aS"Celebrating Carly's Candidacy and Spring Brunch!"
p963
aS'TrapezeLA - Festa del Volo, featuring the SwinGrowers (from Italy)'
p964
aS'BLACK OUT FRIDAYS - THE TRILOGY! DJ BATTLE & CLASS TAKE-OVER - Week # 1'
p965
aS'Caltech to Blackout Friday! (Tonight and this is the correct page!)'
p966
aS'Swingin the Blues w/ Erica Berg, Demetre, Ryan, DJ Bromance!!'
p967
aS'Biology Dance Party'
p968
aS'West Coast Wednesday! (Winnett Lounge at 9)'
p969
aS'FEB 29'
p970
aS'Beginner West Coast Swing Class (last class + location & time change)'
p971
aS'Love Sucks 2016'
p972
aS'Lowkey Swing'
p973
aS'Swingin the Blues w/ Kara Frenzel, Ben Mo, Malia, DJ Jumpin Jack'
p974
aS'Chemistry Dance Party'
p975
aS'West Coast Wednesday! (No review this week again)'
p976
aS'WINTER WESTIE'
p977
aS'Beginner West Coast Swing Class (second to last class!!)'
p978
aS'9th Annual Mustang Ball DanceSport Competition'
p979
aS'Death Valley overnight super-bloom adventure!'
p980
aS'BLACK OUT FRIDAYS - FEB 19th - SONNY WATSON - Dj MEECH'
p981
aS'Caltech goes to Blackout Friday! (This Friday)'
p982
aS'Caltech to Blackout Friday! (This Friday)'
p983
aS'Physics Dance Party'
p984
aS'Swingin the Blues w/Michael Kielbasa, Ben Mo, Malia, DJ Aidan'
p985
aS'West Coast Wednesday! (No review this week )'
p986
aS'Beginner West Coast Swing Class (Over half way!)'
p987
aS'Stoplight Grad Club Night, Mardi Gras Style!'
p988
aS'The Girl From Ipanema \xe2\x80\x93 Alysha\xe2\x80\x99s Brazilian beach birthday party'
p989
aS'Swingin the Blues w/ Mike Eads, Ben Mo, Malia DJ Demetre'
p990
aS'Student-Faculty Colloquium'
p991
aS'West Coast Wednesday! (Review class at 830)'
p992
aS'Fat Tropical Tuesday Masquerade'
p993
aS'Salsa in the Sun'
p994
aS'Super Bowl Party'
p995
aS'A la prochaine!'
p996
aS'BLACK OUT FRIDAYS - FEB 5th - DEMETRE SOULIOTES - HELEN TOCCO'
p997
aS'Swingin the Blues w/ DJ Bromance, Demetre, Malia, Tara'
p998
aS'Salsa Monkeys Party - Lunar New Year'
p999
aS'West Coast Wednesday!'
p1000
aS'Wedding Addresses'
p1001
aS'Beginner West Coast Swing Class'
p1002
aS'Contra with the cool hip dancers'
p1003
aS'International Gourmet Night'
p1004
aS'Wedding Addresses'
p1005
aS'West Coast Wednesday!'
p1006
aS'V.S.D.C. - WCS BLUES NIGHT ! (1/27/2016)'
p1007
aS'Beginner West Coast Swing Class'
p1008
aS'Last Hurrah!'
p1009
aS'BLACK OUT FRIDAYS - THIS FRIDAY - HIP-HOP w JESSI ROHR!! - HELEN TOCCO - DJ MEECH & DJ CHAD'
p1010
aS'Disco Dance Night - Thursday Night Fever'
p1011
aS'Swingin the Blues w/ Brandi Guild, Ben Mo, Ryan, DJ Larisa'
p1012
aS'West Coast Wednesday! (Post Monterey Swingfest Dance)'
p1013
aS'Beginner West Coast Swing Class'
p1014
aS'Belated Epiphany'
p1015
aS'Salsa and Bachata classes and social dancing at Caltech'
p1016
aS'West Coast Wednesday!'
p1017
aS'Bottomless Mimosa Brunch!'
p1018
aS'Star Wars in Machete Order (IV, V, II, III, VI), with food/drinks/games'
p1019
aS'BLACK OUT FRIDAYS - THIS FRIDAY - 2016 KICK OFF! RYAN CRUTCHER - DJ MEECH'
p1020
aS'West Coast Wednesday (Post holiday dance!)'
p1021
aS'Events from 2015'
p1022
aS'Swingin the Blues Holiday Party w/ Maxime & Torri, Kurt Hunter LIVE, DJ Helen!!!'
p1023
aS'5CDC Fall Showcase'
p1024
aS'Top Shelf Presents: On a Mission'
p1025
aS'BLACK OUT FRIDAYS / WHITE CHRISTMAS!!! DJ BATTLE'
p1026
aS'West Coast Wednesday! (Almost end of term!)'
p1027
aS"Norbi's birthday fiesta"
p1028
aS"Ivan's 23rd Birthday"
p1029
aS'Swingin the Blues w/ Stephen & Sonya White, DJ Forrest Hanson, Ben Mo, Demetre'
p1030
aS'West Coast Wednesday!'
p1031
aS'Lindy hop Beginner Series with Heather and Erik (Last lesson!)'
p1032
aS'US Open Wednesday Pre-Party with Ben, Jack & Sonny'
p1033
aS'Thanksgiving Dinner'
p1034
aS'Intermediate Standard Workshop w/ Viktorija'
p1035
aS'Lindy hop Beginner Series with Heather and Erik week 7'
p1036
aS"Chance and Kenny's Housewarming Day-Party"
p1037
aS'BLACK OUT FRIDAYS - This Friday!!! CARLUS & JOSIE - SAMANTHA - MEECH - KARL'
p1038
aS'Last OXE Meeting + Elections!'
p1039
aS'Swingin the Blues w/ Carlus & Josie Reed, DJ Bromance, Ben Mo & Meech'
p1040
aS'West Coast Wednesday! (A week before Thanksgiving!)'
p1041
aS'Int/Adv West Coast Swing with Demetre Souliotes LAST CLASS'
p1042
aS'Advanced Latin Workshop with Anna Kovalova'
p1043
aS'Intermediate Latin Workshop with Anna Kovalova'
p1044
aS'Lindy hop Beginner Series with Heather and Erik week 6'
p1045
aS'Int/Adv West Coast Swing Workshop with Ben Morris'
p1046
aS'Leaving drinks'
p1047
aS'LAST AIChE General Meeting feat. ExxonMobil & Elections!'
p1048
aS'Swingin the Blues College Night w/ Benji Schwimmer, Chris Dumond, Ben Mo, DJ Larisa'
p1049
aS"West Coast Wednesday! (It's cold...Again!)"
p1050
aS'Int/Adv West Coast Swing with Demetre Souliotes Week 5'
p1051
aS'Lindy hop Beginner Series with Heather and Erik week 5'
p1052
aS"AIChE McKetta's Picnic"
p1053
aS'Beach Ball at UCSB 2015'
p1054
aS'BLACK OUT FRIDAYS - THIS FRIDAY!!! KARA FRENZEL - SAMANTHA - MEECH - AIDAN'
p1055
aS"West Coast Wednesday! (It's cold!)"
p1056
aS'Int/Adv West Coast Swing with Demetre Souliotes Week 4'
p1057
aS'No Lindy Hop 11/02 (placeholder reminder)'
p1058
aS'Halloweeeeeeeeeeeeeeeeen'
p1059
aS'Ultimate Friday Swing Returns: Legendary Edition+'
p1060
aS'Swingin the Blues Halloween Swingthing Earlybird Party w/ Ben Mo & DJ Louis St. George!!!'
p1061
aS'Halloween Swingthing'
p1062
aS'Halloween BeachThing'
p1063
aS'Halloween BeachThing (Old Event)'
p1064
aS'A Spooky West Coast Wednesday!'
p1065
aS'No Int/Adv Class on 11/28 (reminder)'
p1066
aS'All Black Vampire Night'
p1067
aS'Lindy hop Beginner Series with Heather and Erik week 4'
p1068
aS'Swingin the Blues w/ Samantha, Tara, Demetre, DJ Helen'
p1069
aS'Paradise Early Bird Dance! Lesson with Carlus & Josie, DJ Larisa Tingle'
p1070
aS'West Coast Wednesday!'
p1071
aS'Int/Adv West Coast Swing with Demetre Souliotes Week 3'
p1072
aS'Lindy hop Beginner Series with Heather and Erik week 3'
p1073
aS'CicLAvia Heart of LA'
p1074
aS'BLACK OUT FRIDAYS - THIS FRIDAY!!! SAMANTHA - HELEN - DEMETRE'
p1075
aS'3rd AIChE General Meeting feat. LyondellBasell'
p1076
aS'Swingin the Blues w/ Michael Kielbasa, Ben Mo, Tara, DJ Larisa'
p1077
aS'West Coast Wednesdays! (New Name!)'
p1078
aS'Int/Adv West Coast Swing with Demetre Souliotes Week 2'
p1079
aS'Lindy hop Beginner Series with Heather and Erik week 2'
p1080
aS'Birthday Party'
p1081
aS'JPL Open House 2015 (Official Event Page)'
p1082
aS'Swingin the Blues w/ Ryan Crutcher, Ben Mo, Tara, DJ Jumpin Jack'
p1083
aS'West Coast (Swing) Wednesday Social! Starting after lessons'
p1084
aS'Int/Adv West Coast Swing with Demetre Souliotes Week 1'
p1085
aS'Lindy hop Beginner Series with Heather and Erik week 1'
p1086
aS'A Celebration Of The Life And Times Of Manan and Mark (thus far)'
p1087
aS'BLACK OUT FRIDAYS - THIS FRIDAY!!! DEMETRE - SAMANTHA - HELEN'
p1088
aS'Swingin the Blues w/ Club Challenge, Miguel De Sousa, DJ Bromance, Ben & Tara!!!!'
p1089
aS'First week of School WCS Dance: Beginner Lesson + Social'
p1090
aS'AIChE Tailgate feat. BASF'
p1091
aS'Space Jamboree (GSC term party!)'
p1092
aS'BLACK OUT FRIDAYS - THIS FRIDAY!!! CARLUS & JOSIE REED | DEMETRE SOULIOTES'
p1093
aS'Lunch and Learn feat. Sage Environmental'
p1094
aS'An Orientation Week WCS Dance: Beginner Lesson + Social'
p1095
aS'THE EVENTS'
p1096
aS"Lunch N' Learn feat. Accenture"
p1097
aS"Sushi-making and board-gaming for Neil's birthday"
p1098
aS'Kickoff Swing Night!'
p1099
aS'2nd AIChE General Meeting feat. Dow Chemical'
p1100
aS'Swingin the Blues w/ Demetre, Ben Mo, Malia, DJ Helen'
p1101
aS'A Not HOT WCS Dance: Beginner Lesson Social'
p1102
aS"Stacy's Birthday!"
p1103
aS'AIChE Tailgate feat. Provenance Consulting'
p1104
aS'End of Summer Party at Britannia!'
p1105
aS'BLACK OUT FRIDAYS - THIS FRIDAY!!! DEMETRE - SAMANTHA - DJ BROMANCE'
p1106
aS'Swingin the Blues w/Mike Eads, Demetre, Samantha, DJ Larisa'
p1107
aS'A HOT WCS Dance: Beginner Lesson + Social'
p1108
aS"Lunch N' Learn feat. Valero"
p1109
aS'1st AIChE General Meeting feat. Chevron'
p1110
aS'Geek Salsa Party - December 3rd'
p1111
aS'Swingin the Blues w/ Ben Mo, Ryan, Malia, DJ Demetre'
p1112
aS'A Cooler WCS Dance: Beginner Lesson + Social Dancing!!'
p1113
aS"Lunch N' Learn feat. Pepsico"
p1114
aS'Swingin the Blues 7 Yr Anniversary w/ Jordan & Tatiana, LIVE Music Extravaganza, DJ Helen'
p1115
aS'Another WCS Dance: Beginner Lesson + Social'
p1116
aS'Summer Lindyhop Workshop Series Week 4 (Last class!)'
p1117
aS'BLACK OUT FRIDAYS - Aug 21st! Ben McHenry, Samantha Buckwalter, & Demetre Souliotes!'
p1118
aS'Swingin the Blues w/ Tashina Beckmann, Samantha, DJ Duo Derick & Demetre'
p1119
aS'WCS Social + Beginner WCS with Demetre Souliotes Week 8 (Actual Last Week of lessons! Sorry!)'
p1120
aS'Swingin the Blues w/ Tara Trafzer, Ben Mo, Samantha, DJ Jumpin Jack'
p1121
aS'WCS Social + Beginner WCS with Demetre Souliotes Week 8 (Last Week of lessons!)'
p1122
aS'Summer Lindyhop Workshop Series Week 3'
p1123
aS'CicLAvia Culver City Meets Venice - Presented by Metro'
p1124
aS'BLACK OUT FRIDAYS - AUG 7th SONNY WATSON & HELEN TOCCO'
p1125
aS'Swingin the Blues w/ Carlus & Josie, Ben Mo, Ryan, DJ Helen'
p1126
aS'Coffee and Conversation: Gender and Diversity in STEM'
p1127
aS"WCS Social + Beginner WCS with Demetre Souliotes Week 7 (I swear I'm not co"
p1128
aS'Ice Cream Topping Party'
p1129
aS'Swingin the Blues w/ Chris & Nicole, Ben Mo, Ryan, DJ Shaheed'
p1130
aS'WCS Social + Beginner WCS with Demetre Souliotes Week 6'
p1131
aS'Summer Lindyhop Workshop Series Week 2'
p1132
aS'IHeartRaves/INTO THE AM/EmazingLights Warehouse Sale - Most items under $10!'
p1133
aS'Swingin the Blues w/ Mary Ann Nunez, Ben Mo, Ryan, DJ Demetre'
p1134
aS'WCS Social + Beginner WCS with Demetre Souliotes Week 5'
p1135
aS'Bachelor Bash'
p1136
aS'BLACK OUT FRIDAYS - TARA TRAFZER, SAMANTHA BUCKWALTER, & DJ MEECH'
p1137
aS"StB: Ben & Maxim's Bday Bash w/ The Old Fashioned Band, Maxim & Torri, DJ Larisa Tingle"
p1138
aS'WCS Social + Beginner WCS with Demetre Souliotes Week 4'
p1139
aS'Summer Lindyhop Workshop Series Week 1'
p1140
aS'Bootie LA - come boogie'
p1141
aS'Swingin the Blues w/ Ben Mo, Demetre, & Ryan'
p1142
aS'An Early WCS Social (Late Invite)'
p1143
aS'Beginner West Coast Swing with Demetre Souliotes Week 3 on Wednesday'
p1144
aS'A Large WCS: Lesson + Social Dancing in Winnett Lounge'
p1145
aS'Beginner West Coast Swing with Demetre Souliotes Week 2'
p1146
aS'Beginner West Coast Swing with Demetre Souliotes Week 2'
p1147
aS'All Levels West Coast Swing Workshop with Ryan Crutcher & Tara Trafzer'
p1148
aS"An Awesome WCS: Lesson + Bao's Farewell Dance + Social at South Cats Rec Room"
p1149
aS'Rumba Workshop with Oleg!'
p1150
aS'Beginner West Coast Swing with Demetre Souliotes Week 1'
p1151
aS"BLACK OUT FRIDAYS - DEMETRE'S B-DAY BASH! w CARLUS & JOSIE!!, and DJ PIDDY"
p1152
aS'A Summer WCS: Lesson + Social'
p1153
aS"JJ O'Rama 2015 Disney Dancer Day"
p1154
aS'Special Sampler Class! (Waltz + Rumba)'
p1155
aS"Paul's Birthday lunch!"
p1156
aS'Surprise Birthday Party for Emily!'
p1157
aS"Swingin the Blues Jack & Jill O'Rama Earlybird Party w/John & Jessica, Ben, & DJ Forrest Hanson"
p1158
aS'DREAM! The Rise and Fall of The Great Mephisto'
p1159
aS'A Hot WCS: Lesson + Social at South Cats Rec Room'
p1160
aS'Pilates and Ballet Workshop this Sunday, June 7th'
p1161
aS'BLACK OUT FRIDAYS - June 5th - Ryan Crutcher - Meech - Samantha Buckwalter - DJ Helen Tocco'
p1162
aS'BLACK OUT FRIDAYS are BACK!!! MAY 15th - Malia - Meech - DJ Bromance'
p1163
a.